; Function Attrs: nofree norecurse nosync nounwind memory(argmem: readwrite) uwtable
define internal void @VE4_SSE2(ptr noundef captures(none) %0) #2 {
  %2 = getelementptr inbounds i8, ptr %0, i64 -33
  %3 = load i64, ptr %2, align 1, !tbaa !7
  %4 = insertelement <2 x i64> <i64 poison, i64 0>, i64 %3, i64 0
  %5 = bitcast <2 x i64> %4 to <16 x i8>
  %6 = shufflevector <16 x i8> %5, <16 x i8> <i8 0, i8 poison, i8 poison, i8 poison, i8 poison, i8 poison, i8 poison, i8 poison, i8 poison, i8 poison, i8 poison, i8 poison, i8 poison, i8 poison, i8 poison, i8 poison>, <16 x i32> <i32 1, i32 2, i32 3, i32 4, i32 5, i32 6, i32 7, i32 8, i32 9, i32 10, i32 11, i32 12, i32 13, i32 14, i32 15, i32 16>
  %7 = shufflevector <16 x i8> %5, <16 x i8> <i8 0, i8 0, i8 poison, i8 poison, i8 poison, i8 poison, i8 poison, i8 poison, i8 poison, i8 poison, i8 poison, i8 poison, i8 poison, i8 poison, i8 poison, i8 poison>, <16 x i32> <i32 2, i32 3, i32 4, i32 5, i32 6, i32 7, i32 8, i32 9, i32 10, i32 11, i32 12, i32 13, i32 14, i32 15, i32 16, i32 17>
  %8 = tail call <16 x i8> @llvm.x86.sse2.pavg.b(<16 x i8> %5, <16 x i8> %7)
  %9 = xor <16 x i8> %7, %5
  %10 = and <16 x i8> %9, splat (i8 1)
  %11 = tail call <16 x i8> @llvm.usub.sat.v16i8(<16 x i8> %8, <16 x i8> %10)
  %12 = tail call <16 x i8> @llvm.x86.sse2.pavg.b(<16 x i8> %11, <16 x i8> %6)
  %13 = bitcast <16 x i8> %12 to <4 x i32>
  %14 = extractelement <4 x i32> %13, i64 0
  br label %15

15:                                               ; preds = %1, %15
  %indvars.iv = phi i64 [ 0, %1 ], [ %indvars.iv.next, %15 ]
  %16 = shl nuw nsw i64 %indvars.iv, 5
  %17 = getelementptr inbounds nuw i8, ptr %0, i64 %16
  store i32 %14, ptr %17, align 1
  %indvars.iv.next = add nuw nsw i64 %indvars.iv, 1
  %exitcond.not = icmp eq i64 %indvars.iv.next, 4
  br i1 %exitcond.not, label %18, label %15, !llvm.loop !15

18:                                               ; preds = %15
  ret void
}